target datalayout = "e-m:e-p270:32:32-p271:32:32-p272:64:64-i64:64-i128:128-f80:128-n8:16:32:64-S128"
target triple = "x86_64-pc-linux-gnu"

%struct.FT_GlyphRec_ = type { ptr, ptr, i32, %struct.FT_Vector_ }
%struct.FT_Vector_ = type { i64, i64 }
%struct.FT_Matrix_ = type { i64, i64, i64, i64 }
%struct.FT_LibraryRec_ = type { ptr, i32, i32, i32, i32, [32 x ptr], %struct.FT_ListRec_, ptr, ptr, [4 x ptr], [3 x %struct.FT_Vector_], i32 }
%struct.FT_ListRec_ = type { ptr, ptr }
%struct.FT_Size_Metrics_ = type { i16, i16, i64, i64, i64, i64, i64, i64 }
%struct.FT_SvgGlyphRec_ = type { %struct.FT_GlyphRec_, ptr, i64, i32, %struct.FT_Size_Metrics_, i16, i16, i16, %struct.FT_Matrix_, %struct.FT_Vector_ }

; Function Attrs: nounwind uwtable
define internal void @ft_svg_glyph_done(ptr noundef %0) #0 {
  %2 = alloca ptr, align 8
  %3 = alloca ptr, align 8
  %4 = alloca ptr, align 8
  store ptr %0, ptr %2, align 8, !tbaa !3
  call void @llvm.lifetime.start.p0(i64 8, ptr %3) #6
  %5 = load ptr, ptr %2, align 8, !tbaa !3
  store ptr %5, ptr %3, align 8, !tbaa !75
  call void @llvm.lifetime.start.p0(i64 8, ptr %4) #6
  %6 = load ptr, ptr %2, align 8, !tbaa !3
  %7 = getelementptr inbounds nuw %struct.FT_GlyphRec_, ptr %6, i32 0, i32 0
  %8 = load ptr, ptr %7, align 8, !tbaa !14
  %9 = getelementptr inbounds nuw %struct.FT_LibraryRec_, ptr %8, i32 0, i32 0
  %10 = load ptr, ptr %9, align 8, !tbaa !77
  store ptr %10, ptr %4, align 8, !tbaa !84
  br label %11

11:                                               ; preds = %1
  %12 = load ptr, ptr %4, align 8, !tbaa !84
  %13 = load ptr, ptr %3, align 8, !tbaa !75
  %14 = getelementptr inbounds nuw %struct.FT_SvgGlyphRec_, ptr %13, i32 0, i32 1
  %15 = load ptr, ptr %14, align 8, !tbaa !92
  call void @ft_mem_free(ptr noundef %12, ptr noundef %15)
  %16 = load ptr, ptr %3, align 8, !tbaa !75
  %17 = getelementptr inbounds nuw %struct.FT_SvgGlyphRec_, ptr %16, i32 0, i32 1
  store ptr null, ptr %17, align 8, !tbaa !92
  br label %18

18:                                               ; preds = %11
  br label %19

19:                                               ; preds = %18
  call void @llvm.lifetime.end.p0(i64 8, ptr %4) #6
  call void @llvm.lifetime.end.p0(i64 8, ptr %3) #6
  ret void
}