; Function Attrs: nounwind uwtable
define internal void @ft_svg_glyph_done(ptr noundef captures(none) %0) #0 {
  %2 = load ptr, ptr %0, align 8, !tbaa !3
  %3 = load ptr, ptr %2, align 8, !tbaa !61
  %4 = getelementptr inbounds nuw i8, ptr %0, i64 40
  %5 = load ptr, ptr %4, align 8, !tbaa !72
  tail call void @ft_mem_free(ptr noundef %3, ptr noundef %5) #6
  store ptr null, ptr %4, align 8, !tbaa !72
  ret void
}